target datalayout = "e-m:e-p270:32:32-p271:32:32-p272:64:64-i64:64-i128:128-f80:128-n8:16:32:64-S128"
target triple = "x86_64-pc-linux-gnu"

%union.cmsInterpFunction = type { ptr }
%struct._cms_interp_struc = type { ptr, i32, i32, i32, [15 x i32], [15 x i32], [15 x i32], ptr, %union.cmsInterpFunction }

; Function Attrs: nounwind uwtable
define internal i32 @_cmsQuickFloor(double noundef %0) #0 {
  %2 = alloca double, align 8
  store double %0, ptr %2, align 8
  %3 = load double, ptr %2, align 8
  %4 = call double @llvm.floor.f64(double %3)
  %5 = fptosi double %4 to i32
  ret i32 %5
}

; Function Attrs: nounwind uwtable
define internal float @fclamp(float noundef %0) #0 {
  %2 = alloca float, align 4
  store float %0, ptr %2, align 4
  %3 = load float, ptr %2, align 4
  %4 = fcmp olt float %3, 0x3E112E0BE0000000
  br i1 %4, label %8, label %5

5:                                                ; preds = %1
  %6 = load float, ptr %2, align 4
  %7 = call i1 @llvm.is.fpclass.f32(float %6, i32 3)
  br i1 %7, label %8, label %9

8:                                                ; preds = %5, %1
  br label %17

9:                                                ; preds = %5
  %10 = load float, ptr %2, align 4
  %11 = fcmp ogt float %10, 1.000000e+00
  br i1 %11, label %12, label %13

12:                                               ; preds = %9
  br label %15

13:                                               ; preds = %9
  %14 = load float, ptr %2, align 4
  br label %15

15:                                               ; preds = %13, %12
  %16 = phi float [ 1.000000e+00, %12 ], [ %14, %13 ]
  br label %17

17:                                               ; preds = %15, %8
  %18 = phi float [ 0.000000e+00, %8 ], [ %16, %15 ]
  ret float %18
}

; Function Attrs: nounwind uwtable
define internal void @Eval8InputsFloat(ptr noundef %0, ptr noundef %1, ptr noundef %2) #0 {
  %4 = alloca ptr, align 8
  %5 = alloca ptr, align 8
  %6 = alloca ptr, align 8
  %7 = alloca ptr, align 8
  %8 = alloca float, align 4
  %9 = alloca float, align 4
  %10 = alloca i32, align 4
  %11 = alloca i32, align 4
  %12 = alloca i32, align 4
  %13 = alloca ptr, align 8
  %14 = alloca i32, align 4
  %15 = alloca [128 x float], align 16
  %16 = alloca [128 x float], align 16
  %17 = alloca %struct._cms_interp_struc, align 8
  %18 = alloca float, align 4
  %19 = alloca float, align 4
  store ptr %0, ptr %4, align 8
  store ptr %1, ptr %5, align 8
  store ptr %2, ptr %6, align 8
  %20 = load ptr, ptr %6, align 8
  %21 = getelementptr inbounds %struct._cms_interp_struc, ptr %20, i32 0, i32 7
  %22 = load ptr, ptr %21, align 8
  store ptr %22, ptr %7, align 8
  %23 = load ptr, ptr %4, align 8
  %24 = getelementptr inbounds float, ptr %23, i64 0
  %25 = load float, ptr %24, align 4
  %26 = call float @fclamp(float noundef %25)
  %27 = load ptr, ptr %6, align 8
  %28 = getelementptr inbounds %struct._cms_interp_struc, ptr %27, i32 0, i32 5
  %29 = getelementptr inbounds [15 x i32], ptr %28, i64 0, i64 0
  %30 = load i32, ptr %29, align 8
  %31 = uitofp i32 %30 to float
  %32 = fmul float %26, %31
  store float %32, ptr %9, align 4
  %33 = load float, ptr %9, align 4
  %34 = fpext float %33 to double
  %35 = call i32 @_cmsQuickFloor(double noundef %34)
  store i32 %35, ptr %10, align 4
  %36 = load float, ptr %9, align 4
  %37 = load i32, ptr %10, align 4
  %38 = sitofp i32 %37 to float
  %39 = fsub float %36, %38
  store float %39, ptr %8, align 4
  %40 = load ptr, ptr %6, align 8
  %41 = getelementptr inbounds %struct._cms_interp_struc, ptr %40, i32 0, i32 6
  %42 = getelementptr inbounds [15 x i32], ptr %41, i64 0, i64 7
  %43 = load i32, ptr %42, align 4
  %44 = load i32, ptr %10, align 4
  %45 = mul i32 %43, %44
  store i32 %45, ptr %11, align 4
  %46 = load i32, ptr %11, align 4
  %47 = load ptr, ptr %4, align 8
  %48 = getelementptr inbounds float, ptr %47, i64 0
  %49 = load float, ptr %48, align 4
  %50 = call float @fclamp(float noundef %49)
  %51 = fpext float %50 to double
  %52 = fcmp oge double %51, 1.000000e+00
  br i1 %52, label %53, label %54

53:                                               ; preds = %3
  br label %59

54:                                               ; preds = %3
  %55 = load ptr, ptr %6, align 8
  %56 = getelementptr inbounds %struct._cms_interp_struc, ptr %55, i32 0, i32 6
  %57 = getelementptr inbounds [15 x i32], ptr %56, i64 0, i64 7
  %58 = load i32, ptr %57, align 4
  br label %59

59:                                               ; preds = %54, %53
  %60 = phi i32 [ 0, %53 ], [ %58, %54 ]
  %61 = add i32 %46, %60
  store i32 %61, ptr %12, align 4
  %62 = load ptr, ptr %6, align 8
  call void @llvm.memcpy.p0.p0.i64(ptr align 8 %17, ptr align 8 %62, i64 216, i1 false)
  %63 = getelementptr inbounds %struct._cms_interp_struc, ptr %17, i32 0, i32 5
  %64 = getelementptr inbounds [15 x i32], ptr %63, i64 0, i64 0
  %65 = load ptr, ptr %6, align 8
  %66 = getelementptr inbounds %struct._cms_interp_struc, ptr %65, i32 0, i32 5
  %67 = getelementptr inbounds [15 x i32], ptr %66, i64 0, i64 1
  call void @llvm.memmove.p0.p0.i64(ptr align 8 %64, ptr align 4 %67, i64 28, i1 false)
  %68 = load ptr, ptr %7, align 8
  %69 = load i32, ptr %11, align 4
  %70 = sext i32 %69 to i64
  %71 = getelementptr inbounds float, ptr %68, i64 %70
  store ptr %71, ptr %13, align 8
  %72 = load ptr, ptr %13, align 8
  %73 = getelementptr inbounds %struct._cms_interp_struc, ptr %17, i32 0, i32 7
  store ptr %72, ptr %73, align 8
  %74 = load ptr, ptr %4, align 8
  %75 = getelementptr inbounds float, ptr %74, i64 1
  %76 = getelementptr inbounds [128 x float], ptr %15, i64 0, i64 0
  call void @Eval7InputsFloat(ptr noundef %75, ptr noundef %76, ptr noundef %17)
  %77 = load ptr, ptr %7, align 8
  %78 = load i32, ptr %12, align 4
  %79 = sext i32 %78 to i64
  %80 = getelementptr inbounds float, ptr %77, i64 %79
  store ptr %80, ptr %13, align 8
  %81 = load ptr, ptr %13, align 8
  %82 = getelementptr inbounds %struct._cms_interp_struc, ptr %17, i32 0, i32 7
  store ptr %81, ptr %82, align 8
  %83 = load ptr, ptr %4, align 8
  %84 = getelementptr inbounds float, ptr %83, i64 1
  %85 = getelementptr inbounds [128 x float], ptr %16, i64 0, i64 0
  call void @Eval7InputsFloat(ptr noundef %84, ptr noundef %85, ptr noundef %17)
  store i32 0, ptr %14, align 4
  br label %86

86:                                               ; preds = %111, %59
  %87 = load i32, ptr %14, align 4
  %88 = load ptr, ptr %6, align 8
  %89 = getelementptr inbounds %struct._cms_interp_struc, ptr %88, i32 0, i32 3
  %90 = load i32, ptr %89, align 8
  %91 = icmp ult i32 %87, %90
  br i1 %91, label %92, label %114

92:                                               ; preds = %86
  %93 = load i32, ptr %14, align 4
  %94 = zext i32 %93 to i64
  %95 = getelementptr inbounds [128 x float], ptr %15, i64 0, i64 %94
  %96 = load float, ptr %95, align 4
  store float %96, ptr %18, align 4
  %97 = load i32, ptr %14, align 4
  %98 = zext i32 %97 to i64
  %99 = getelementptr inbounds [128 x float], ptr %16, i64 0, i64 %98
  %100 = load float, ptr %99, align 4
  store float %100, ptr %19, align 4
  %101 = load float, ptr %18, align 4
  %102 = load float, ptr %19, align 4
  %103 = load float, ptr %18, align 4
  %104 = fsub float %102, %103
  %105 = load float, ptr %8, align 4
  %106 = call float @llvm.fmuladd.f32(float %104, float %105, float %101)
  %107 = load ptr, ptr %5, align 8
  %108 = load i32, ptr %14, align 4
  %109 = zext i32 %108 to i64
  %110 = getelementptr inbounds float, ptr %107, i64 %109
  store float %106, ptr %110, align 4
  br label %111

111:                                              ; preds = %92
  %112 = load i32, ptr %14, align 4
  %113 = add i32 %112, 1
  store i32 %113, ptr %14, align 4
  br label %86, !llvm.loop !35

114:                                              ; preds = %86
  ret void
}