; Function Attrs: nofree norecurse nosync nounwind memory(read, argmem: readwrite, inaccessiblemem: none) uwtable
define internal void @Eval8InputsFloat(ptr nocapture noundef readonly %0, ptr nocapture noundef writeonly %1, ptr nocapture noundef readonly %2) #4 {
  %4 = alloca [128 x float], align 16
  %5 = alloca [128 x float], align 16
  %6 = alloca %struct._cms_interp_struc, align 8
  %7 = getelementptr inbounds i8, ptr %2, i64 200
  %8 = load ptr, ptr %7, align 8
  %9 = load float, ptr %0, align 4
  %10 = fcmp olt float %9, 0x3E112E0BE0000000
  %11 = fcmp uno float %9, 0.000000e+00
  %or.cond.i = or i1 %10, %11
  %12 = fcmp ogt float %9, 1.000000e+00
  %13 = select i1 %12, float 1.000000e+00, float %9
  %14 = select i1 %or.cond.i, float 0.000000e+00, float %13
  %15 = getelementptr inbounds i8, ptr %2, i64 80
  %16 = load i32, ptr %15, align 8
  %17 = uitofp i32 %16 to float
  %18 = fmul float %14, %17
  %19 = tail call float @llvm.floor.f32(float %18)
  %20 = fptosi float %19 to i32
  %21 = sitofp i32 %20 to float
  %22 = fsub float %18, %21
  %23 = getelementptr inbounds i8, ptr %2, i64 168
  %24 = load i32, ptr %23, align 4
  %25 = mul i32 %24, %20
  %26 = fcmp ult float %14, 1.000000e+00
  %27 = select i1 %26, i32 %24, i32 0
  %28 = add i32 %25, %27
  call void @llvm.memcpy.p0.p0.i64(ptr noundef nonnull align 8 dereferenceable(216) %6, ptr noundef nonnull align 8 dereferenceable(216) %2, i64 216, i1 false)
  %29 = getelementptr inbounds i8, ptr %6, i64 80
  %30 = getelementptr inbounds i8, ptr %2, i64 84
  call void @llvm.memcpy.p0.p0.i64(ptr noundef nonnull align 8 dereferenceable(28) %29, ptr noundef nonnull align 4 dereferenceable(28) %30, i64 28, i1 false)
  %31 = sext i32 %25 to i64
  %32 = getelementptr inbounds float, ptr %8, i64 %31
  %33 = getelementptr inbounds i8, ptr %6, i64 200
  store ptr %32, ptr %33, align 8
  %34 = getelementptr inbounds i8, ptr %0, i64 4
  call void @Eval7InputsFloat(ptr noundef nonnull %34, ptr noundef nonnull %4, ptr noundef nonnull %6)
  %35 = sext i32 %28 to i64
  %36 = getelementptr inbounds float, ptr %8, i64 %35
  store ptr %36, ptr %33, align 8
  call void @Eval7InputsFloat(ptr noundef nonnull %34, ptr noundef nonnull %5, ptr noundef nonnull %6)
  %37 = getelementptr inbounds i8, ptr %2, i64 16
  %38 = load i32, ptr %37, align 8
  %.not = icmp eq i32 %38, 0
  br i1 %.not, label %._crit_edge, label %.lr.ph

.lr.ph:                                           ; preds = %3, %.lr.ph
  %indvars.iv = phi i64 [ %indvars.iv.next, %.lr.ph ], [ 0, %3 ]
  %39 = getelementptr inbounds [128 x float], ptr %4, i64 0, i64 %indvars.iv
  %40 = load float, ptr %39, align 4
  %41 = getelementptr inbounds [128 x float], ptr %5, i64 0, i64 %indvars.iv
  %42 = load float, ptr %41, align 4
  %43 = fsub float %42, %40
  %44 = tail call float @llvm.fmuladd.f32(float %43, float %22, float %40)
  %45 = getelementptr inbounds float, ptr %1, i64 %indvars.iv
  store float %44, ptr %45, align 4
  %indvars.iv.next = add nuw nsw i64 %indvars.iv, 1
  %46 = load i32, ptr %37, align 8
  %47 = zext i32 %46 to i64
  %48 = icmp ult i64 %indvars.iv.next, %47
  br i1 %48, label %.lr.ph, label %._crit_edge, !llvm.loop !35

._crit_edge:                                      ; preds = %.lr.ph, %3
  ret void
}